target datalayout = "e-m:e-p270:32:32-p271:32:32-p272:64:64-i64:64-i128:128-f80:128-n8:16:32:64-S128"
target triple = "x86_64-pc-linux-gnu"

%struct.QTailQLink = type { ptr, ptr }
%struct.QObjectBase_ = type { i32, i64 }
%struct.QList = type { %struct.QObjectBase_, %union.anon.24 }
%union.anon.24 = type { %struct.QTailQLink }
%struct.QObject = type { %struct.QObjectBase_ }
%struct.QListEntry = type { ptr, %union.anon.25 }
%union.anon.25 = type { %struct.QTailQLink }

@.str.1 = private unnamed_addr constant [19 x i8] c"../qemu/blockdev.c\00", align 1
@__func__.parse_stats_intervals = private unnamed_addr constant [22 x i8] c"parse_stats_intervals\00", align 1
@.str.204 = private unnamed_addr constant [28 x i8] c"Invalid interval length: %s\00", align 1
@.str.205 = private unnamed_addr constant [29 x i8] c"Invalid interval length: %ld\00", align 1
@.str.206 = private unnamed_addr constant [48 x i8] c"The specification of stats-intervals is invalid\00", align 1
@.str.207 = private unnamed_addr constant [59 x i8] c"QTYPE_NONE < obj->base.type && obj->base.type < QTYPE__MAX\00", align 1
@.str.208 = private unnamed_addr constant [104 x i8] c"/home/dtcxzyw/WorkSpace/Projects/compilers/llvm-opt-benchmark/bench/qemu/qemu/include/qobject/qobject.h\00", align 1
@__PRETTY_FUNCTION__.qobject_type = private unnamed_addr constant [36 x i8] c"QType qobject_type(const QObject *)\00", align 1

; Function Attrs: inlinehint nounwind sspstrong uwtable
define internal ptr @qlist_next(ptr noundef %0) #5 {
  %2 = alloca ptr, align 8
  store ptr %0, ptr %2, align 8
  %3 = load ptr, ptr %2, align 8
  %4 = getelementptr inbounds nuw %struct.QListEntry, ptr %3, i32 0, i32 1
  %5 = load ptr, ptr %4, align 8
  ret ptr %5
}

; Function Attrs: inlinehint nounwind sspstrong uwtable
define internal ptr @qobject_check_type(ptr noundef %0, i32 noundef %1) #5 {
  %3 = alloca ptr, align 8
  %4 = alloca ptr, align 8
  %5 = alloca i32, align 4
  store ptr %0, ptr %4, align 8
  store i32 %1, ptr %5, align 4
  %6 = load ptr, ptr %4, align 8
  %7 = icmp ne ptr %6, null
  br i1 %7, label %8, label %15

8:                                                ; preds = %2
  %9 = load ptr, ptr %4, align 8
  %10 = call i32 @qobject_type(ptr noundef %9)
  %11 = load i32, ptr %5, align 4
  %12 = icmp eq i32 %10, %11
  br i1 %12, label %13, label %15

13:                                               ; preds = %8
  %14 = load ptr, ptr %4, align 8
  store ptr %14, ptr %3, align 8
  br label %16

15:                                               ; preds = %8, %2
  store ptr null, ptr %3, align 8
  br label %16

16:                                               ; preds = %15, %13
  %17 = load ptr, ptr %3, align 8
  ret ptr %17
}

; Function Attrs: inlinehint nounwind sspstrong uwtable
define internal i32 @qobject_type(ptr noundef %0) #5 {
  %2 = alloca ptr, align 8
  store ptr %0, ptr %2, align 8
  %3 = load ptr, ptr %2, align 8
  %4 = getelementptr inbounds nuw %struct.QObject, ptr %3, i32 0, i32 0
  %5 = getelementptr inbounds nuw %struct.QObjectBase_, ptr %4, i32 0, i32 0
  %6 = load i32, ptr %5, align 8
  %7 = icmp ult i32 0, %6
  br i1 %7, label %8, label %15

8:                                                ; preds = %1
  %9 = load ptr, ptr %2, align 8
  %10 = getelementptr inbounds nuw %struct.QObject, ptr %9, i32 0, i32 0
  %11 = getelementptr inbounds nuw %struct.QObjectBase_, ptr %10, i32 0, i32 0
  %12 = load i32, ptr %11, align 8
  %13 = icmp ult i32 %12, 7
  br i1 %13, label %14, label %15

14:                                               ; preds = %8
  br label %16

15:                                               ; preds = %8, %1
  call void @__assert_fail(ptr noundef @.str.207, ptr noundef @.str.208, i32 noundef 126, ptr noundef @__PRETTY_FUNCTION__.qobject_type) #15
  unreachable

16:                                               ; preds = %14
  %17 = load ptr, ptr %2, align 8
  %18 = getelementptr inbounds nuw %struct.QObject, ptr %17, i32 0, i32 0
  %19 = getelementptr inbounds nuw %struct.QObjectBase_, ptr %18, i32 0, i32 0
  %20 = load i32, ptr %19, align 8
  ret i32 %20
}

; Function Attrs: inlinehint nounwind sspstrong uwtable
define internal ptr @qlist_first(ptr noundef %0) #5 {
  %2 = alloca ptr, align 8
  store ptr %0, ptr %2, align 8
  %3 = load ptr, ptr %2, align 8
  %4 = getelementptr inbounds nuw %struct.QList, ptr %3, i32 0, i32 1
  %5 = load ptr, ptr %4, align 8
  ret ptr %5
}

; Function Attrs: nounwind sspstrong uwtable
define internal zeroext i1 @parse_stats_intervals(ptr noundef %0, ptr noundef %1, ptr noundef %2) #0 {
  %4 = alloca i1, align 1
  %5 = alloca ptr, align 8
  %6 = alloca ptr, align 8
  %7 = alloca ptr, align 8
  %8 = alloca ptr, align 8
  %9 = alloca i64, align 8
  %10 = alloca ptr, align 8
  %11 = alloca i32, align 4
  %12 = alloca i64, align 8
  store ptr %0, ptr %5, align 8
  store ptr %1, ptr %6, align 8
  store ptr %2, ptr %7, align 8
  call void @llvm.lifetime.start.p0(i64 8, ptr %8) #16
  store ptr null, ptr %8, align 8, !annotation !4
  %13 = load ptr, ptr %6, align 8
  %14 = call ptr @qlist_first(ptr noundef %13)
  store ptr %14, ptr %8, align 8
  br label %15

15:                                               ; preds = %72, %3
  %16 = load ptr, ptr %8, align 8
  %17 = icmp ne ptr %16, null
  br i1 %17, label %18, label %75

18:                                               ; preds = %15
  %19 = load ptr, ptr %8, align 8
  %20 = getelementptr inbounds nuw %struct.QListEntry, ptr %19, i32 0, i32 0
  %21 = load ptr, ptr %20, align 8
  %22 = call i32 @qobject_type(ptr noundef %21)
  switch i32 %22, label %69 [
    i32 3, label %23
    i32 2, label %48
  ]

23:                                               ; preds = %18
  call void @llvm.lifetime.start.p0(i64 8, ptr %9) #16
  store i64 0, ptr %9, align 8, !annotation !4
  call void @llvm.lifetime.start.p0(i64 8, ptr %10) #16
  %24 = load ptr, ptr %8, align 8
  %25 = getelementptr inbounds nuw %struct.QListEntry, ptr %24, i32 0, i32 0
  %26 = load ptr, ptr %25, align 8
  %27 = call ptr @qobject_check_type(ptr noundef %26, i32 noundef 3)
  %28 = call ptr @qstring_get_str(ptr noundef %27)
  store ptr %28, ptr %10, align 8
  %29 = load ptr, ptr %10, align 8
  %30 = call i32 @parse_uint_full(ptr noundef %29, i32 noundef 10, ptr noundef %9)
  %31 = icmp eq i32 %30, 0
  br i1 %31, label %32, label %42

32:                                               ; preds = %23
  %33 = load i64, ptr %9, align 8
  %34 = icmp ugt i64 %33, 0
  br i1 %34, label %35, label %42

35:                                               ; preds = %32
  %36 = load i64, ptr %9, align 8
  %37 = icmp ule i64 %36, 4294967295
  br i1 %37, label %38, label %42

38:                                               ; preds = %35
  %39 = load ptr, ptr %5, align 8
  %40 = load i64, ptr %9, align 8
  %41 = trunc i64 %40 to i32
  call void @block_acct_add_interval(ptr noundef %39, i32 noundef %41)
  br label %45

42:                                               ; preds = %35, %32, %23
  %43 = load ptr, ptr %7, align 8
  %44 = load ptr, ptr %10, align 8
  call void (ptr, ptr, i32, ptr, ptr, ...) @error_setg_internal(ptr noundef %43, ptr noundef @.str.1, i32 noundef 351, ptr noundef @__func__.parse_stats_intervals, ptr noundef @.str.204, ptr noundef %44)
  store i1 false, ptr %4, align 1
  store i32 1, ptr %11, align 4
  br label %46

45:                                               ; preds = %38
  store i32 5, ptr %11, align 4
  br label %46

46:                                               ; preds = %45, %42
  call void @llvm.lifetime.end.p0(i64 8, ptr %10) #16
  call void @llvm.lifetime.end.p0(i64 8, ptr %9) #16
  %47 = load i32, ptr %11, align 4
  switch i32 %47, label %76 [
    i32 5, label %71
  ]

48:                                               ; preds = %18
  call void @llvm.lifetime.start.p0(i64 8, ptr %12) #16
  %49 = load ptr, ptr %8, align 8
  %50 = getelementptr inbounds nuw %struct.QListEntry, ptr %49, i32 0, i32 0
  %51 = load ptr, ptr %50, align 8
  %52 = call ptr @qobject_check_type(ptr noundef %51, i32 noundef 2)
  %53 = call i64 @qnum_get_int(ptr noundef %52)
  store i64 %53, ptr %12, align 8
  %54 = load i64, ptr %12, align 8
  %55 = icmp sgt i64 %54, 0
  br i1 %55, label %56, label %63

56:                                               ; preds = %48
  %57 = load i64, ptr %12, align 8
  %58 = icmp sle i64 %57, 4294967295
  br i1 %58, label %59, label %63

59:                                               ; preds = %56
  %60 = load ptr, ptr %5, align 8
  %61 = load i64, ptr %12, align 8
  %62 = trunc i64 %61 to i32
  call void @block_acct_add_interval(ptr noundef %60, i32 noundef %62)
  br label %66

63:                                               ; preds = %56, %48
  %64 = load ptr, ptr %7, align 8
  %65 = load i64, ptr %12, align 8
  call void (ptr, ptr, i32, ptr, ptr, ...) @error_setg_internal(ptr noundef %64, ptr noundef @.str.1, i32 noundef 363, ptr noundef @__func__.parse_stats_intervals, ptr noundef @.str.205, i64 noundef %65)
  store i1 false, ptr %4, align 1
  store i32 1, ptr %11, align 4
  br label %67

66:                                               ; preds = %59
  store i32 5, ptr %11, align 4
  br label %67

67:                                               ; preds = %66, %63
  call void @llvm.lifetime.end.p0(i64 8, ptr %12) #16
  %68 = load i32, ptr %11, align 4
  switch i32 %68, label %76 [
    i32 5, label %71
  ]

69:                                               ; preds = %18
  %70 = load ptr, ptr %7, align 8
  call void (ptr, ptr, i32, ptr, ptr, ...) @error_setg_internal(ptr noundef %70, ptr noundef @.str.1, i32 noundef 370, ptr noundef @__func__.parse_stats_intervals, ptr noundef @.str.206)
  store i1 false, ptr %4, align 1
  store i32 1, ptr %11, align 4
  br label %76

71:                                               ; preds = %67, %46
  br label %72

72:                                               ; preds = %71
  %73 = load ptr, ptr %8, align 8
  %74 = call ptr @qlist_next(ptr noundef %73)
  store ptr %74, ptr %8, align 8
  br label %15, !llvm.loop !28

75:                                               ; preds = %15
  store i1 true, ptr %4, align 1
  store i32 1, ptr %11, align 4
  br label %76

76:                                               ; preds = %75, %69, %67, %46
  call void @llvm.lifetime.end.p0(i64 8, ptr %8) #16
  %77 = load i1, ptr %4, align 1
  ret i1 %77
}