; Function Attrs: nounwind sspstrong uwtable
define internal fastcc noundef zeroext i1 @parse_stats_intervals(ptr noundef %0, ptr readonly captures(address_is_null) %.16.val, ptr noundef %1) unnamed_addr #0 {
  %3 = alloca i64, align 8
  %.not9 = icmp eq ptr %.16.val, null
  br i1 %.not9, label %.loopexit, label %.lr.ph

.lr.ph:                                           ; preds = %2, %27
  %.02710 = phi ptr [ %.027.val, %27 ], [ %.16.val, %2 ]
  %4 = load ptr, ptr %.02710, align 8
  %.val30 = load i32, ptr %4, align 8
  %5 = add i32 %.val30, -1
  %or.cond.i = icmp ult i32 %5, 6
  br i1 %or.cond.i, label %qobject_type.exit, label %6

6:                                                ; preds = %.lr.ph
  call void @__assert_fail(ptr noundef nonnull @.str.207, ptr noundef nonnull @.str.208, i32 noundef 126, ptr noundef nonnull @__PRETTY_FUNCTION__.qobject_type) #15
  unreachable

qobject_type.exit:                                ; preds = %.lr.ph
  switch i32 %.val30, label %26 [
    i32 3, label %7
    i32 2, label %qobject_check_type.exit36
  ]

7:                                                ; preds = %qobject_type.exit
  call void @llvm.lifetime.start.p0(i64 8, ptr nonnull %3) #14
  store i64 0, ptr %3, align 8, !annotation !10
  %8 = load ptr, ptr %.02710, align 8
  %.not.i = icmp eq ptr %8, null
  br i1 %.not.i, label %13, label %9

9:                                                ; preds = %7
  %.val.i = load i32, ptr %8, align 8
  %10 = add i32 %.val.i, -1
  %or.cond.i.i = icmp ult i32 %10, 6
  br i1 %or.cond.i.i, label %qobject_type.exit.i, label %11

11:                                               ; preds = %9
  call void @__assert_fail(ptr noundef nonnull @.str.207, ptr noundef nonnull @.str.208, i32 noundef 126, ptr noundef nonnull @__PRETTY_FUNCTION__.qobject_type) #15
  unreachable

qobject_type.exit.i:                              ; preds = %9
  %12 = icmp eq i32 %.val.i, 3
  br i1 %12, label %qobject_check_type.exit, label %13

13:                                               ; preds = %qobject_type.exit.i, %7
  br label %qobject_check_type.exit

qobject_check_type.exit:                          ; preds = %qobject_type.exit.i, %13
  %.0.i = phi ptr [ null, %13 ], [ %8, %qobject_type.exit.i ]
  %14 = call ptr @qstring_get_str(ptr noundef %.0.i) #14
  %15 = call i32 @parse_uint_full(ptr noundef %14, i32 noundef 10, ptr noundef nonnull %3) #14
  %16 = icmp eq i32 %15, 0
  %17 = load i64, ptr %3, align 8
  %18 = add i64 %17, -1
  %19 = icmp ult i64 %18, 4294967295
  %or.cond4 = select i1 %16, i1 %19, i1 false
  br i1 %or.cond4, label %.thread, label %21

.thread:                                          ; preds = %qobject_check_type.exit
  %20 = trunc nuw i64 %17 to i32
  call void @block_acct_add_interval(ptr noundef %0, i32 noundef %20) #14
  call void @llvm.lifetime.end.p0(i64 8, ptr nonnull %3) #14
  br label %27

21:                                               ; preds = %qobject_check_type.exit
  call void (ptr, ptr, i32, ptr, ptr, ...) @error_setg_internal(ptr noundef %1, ptr noundef nonnull @.str.1, i32 noundef 351, ptr noundef nonnull @__func__.parse_stats_intervals, ptr noundef nonnull @.str.204, ptr noundef %14) #14
  call void @llvm.lifetime.end.p0(i64 8, ptr nonnull %3) #14
  br label %.loopexit

qobject_check_type.exit36:                        ; preds = %qobject_type.exit
  %22 = call i64 @qnum_get_int(ptr noundef nonnull %4) #14
  %23 = add i64 %22, -1
  %or.cond6 = icmp ult i64 %23, 4294967295
  br i1 %or.cond6, label %.thread1, label %25

.thread1:                                         ; preds = %qobject_check_type.exit36
  %24 = trunc nuw i64 %22 to i32
  call void @block_acct_add_interval(ptr noundef %0, i32 noundef %24) #14
  br label %27

25:                                               ; preds = %qobject_check_type.exit36
  call void (ptr, ptr, i32, ptr, ptr, ...) @error_setg_internal(ptr noundef %1, ptr noundef nonnull @.str.1, i32 noundef 363, ptr noundef nonnull @__func__.parse_stats_intervals, ptr noundef nonnull @.str.205, i64 noundef %22) #14
  br label %.loopexit

26:                                               ; preds = %qobject_type.exit
  call void (ptr, ptr, i32, ptr, ptr, ...) @error_setg_internal(ptr noundef %1, ptr noundef nonnull @.str.1, i32 noundef 370, ptr noundef nonnull @__func__.parse_stats_intervals, ptr noundef nonnull @.str.206) #14
  br label %.loopexit

27:                                               ; preds = %.thread1, %.thread
  %28 = getelementptr i8, ptr %.02710, i64 8
  %.027.val = load ptr, ptr %28, align 8
  %.not = icmp eq ptr %.027.val, null
  br i1 %.not, label %.loopexit, label %.lr.ph, !llvm.loop !26

.loopexit:                                        ; preds = %27, %2, %25, %21, %26
  %.not7 = phi i1 [ false, %25 ], [ false, %21 ], [ false, %26 ], [ true, %2 ], [ true, %27 ]
  ret i1 %.not7
}